; Function Attrs: nounwind uwtable
define ptr @Aig_ManDupFlopsOnly(ptr noundef %0) local_unnamed_addr #0 {
  %2 = tail call ptr @Aig_ManDupWithoutPos(ptr noundef %0)
  %3 = getelementptr i8, ptr %0, i64 104
  %.val1618 = load i32, ptr %3, align 8, !tbaa !45
  %4 = icmp sgt i32 %.val1618, 0
  br i1 %4, label %.lr.ph, label %.critedge

.lr.ph:                                           ; preds = %1
  %5 = getelementptr inbounds nuw i8, ptr %0, i64 24
  %6 = getelementptr i8, ptr %0, i64 112
  br label %7

7:                                                ; preds = %.lr.ph, %Aig_ObjChild0Copy.exit
  %.019 = phi i32 [ 0, %.lr.ph ], [ %28, %Aig_ObjChild0Copy.exit ]
  %8 = load ptr, ptr %5, align 8, !tbaa !40
  %.val17 = load i32, ptr %6, align 8, !tbaa !82
  %9 = add nsw i32 %.val17, %.019
  %10 = getelementptr i8, ptr %8, i64 8
  %.val = load ptr, ptr %10, align 8, !tbaa !36
  %11 = sext i32 %9 to i64
  %12 = getelementptr inbounds ptr, ptr %.val, i64 %11
  %13 = load ptr, ptr %12, align 8, !tbaa !37
  %14 = getelementptr i8, ptr %13, i64 8
  %.val14 = load ptr, ptr %14, align 8, !tbaa !41
  %15 = ptrtoint ptr %.val14 to i64
  %16 = and i64 %15, -2
  %.not.i = icmp eq i64 %16, 0
  br i1 %.not.i, label %Aig_ObjChild0Copy.exit, label %17

17:                                               ; preds = %7
  %18 = inttoptr i64 %16 to ptr
  %19 = getelementptr inbounds nuw i8, ptr %18, i64 40
  %20 = load ptr, ptr %19, align 8, !tbaa !34
  %21 = and i64 %15, 1
  %22 = ptrtoint ptr %20 to i64
  %23 = xor i64 %21, %22
  %24 = inttoptr i64 %23 to ptr
  br label %Aig_ObjChild0Copy.exit

Aig_ObjChild0Copy.exit:                           ; preds = %7, %17
  %25 = phi ptr [ %24, %17 ], [ null, %7 ]
  %26 = tail call ptr @Aig_ObjCreateCo(ptr noundef %2, ptr noundef %25) #11
  %27 = getelementptr inbounds nuw i8, ptr %13, i64 40
  store ptr %26, ptr %27, align 8, !tbaa !34
  %28 = add nuw nsw i32 %.019, 1
  %.val16 = load i32, ptr %3, align 8, !tbaa !45
  %29 = icmp slt i32 %28, %.val16
  br i1 %29, label %7, label %.critedge, !llvm.loop !83

.critedge:                                        ; preds = %Aig_ObjChild0Copy.exit, %1
  %30 = tail call i32 @Aig_ManCleanup(ptr noundef %2) #11
  %.val15 = load i32, ptr %3, align 8, !tbaa !45
  tail call void @Aig_ManSetRegNum(ptr noundef %2, i32 noundef %.val15) #11
  %31 = tail call i32 @Aig_ManCheck(ptr noundef %2) #11
  %.not = icmp eq i32 %31, 0
  br i1 %.not, label %32, label %33

32:                                               ; preds = %.critedge
  %puts = tail call i32 @puts(ptr nonnull dereferenceable(1) @str.11)
  br label %33

33:                                               ; preds = %32, %.critedge
  ret ptr %2
}